(lp1
S'./find_phone/0.jpg'
p2
aS'./find_phone/1.jpg'
p3
aS'./find_phone/10.jpg'
p4
aS'./find_phone/100.jpg'
p5
aS'./find_phone/101.jpg'
p6
aS'./find_phone/102.jpg'
p7
aS'./find_phone/103.jpg'
p8
aS'./find_phone/104.jpg'
p9
aS'./find_phone/105.jpg'
p10
aS'./find_phone/106.jpg'
p11
aS'./find_phone/107.jpg'
p12
aS'./find_phone/108.jpg'
p13
aS'./find_phone/109.jpg'
p14
aS'./find_phone/11.jpg'
p15
aS'./find_phone/110.jpg'
p16
aS'./find_phone/111.jpg'
p17
aS'./find_phone/112.jpg'
p18
aS'./find_phone/113.jpg'
p19
aS'./find_phone/114.jpg'
p20
aS'./find_phone/115.jpg'
p21
aS'./find_phone/116.jpg'
p22
aS'./find_phone/117.jpg'
p23
aS'./find_phone/118.jpg'
p24
aS'./find_phone/119.jpg'
p25
aS'./find_phone/12.jpg'
p26
aS'./find_phone/120.jpg'
p27
aS'./find_phone/121.jpg'
p28
aS'./find_phone/122.jpg'
p29
aS'./find_phone/123.jpg'
p30
aS'./find_phone/124.jpg'
p31
aS'./find_phone/125.jpg'
p32
aS'./find_phone/126.jpg'
p33
aS'./find_phone/127.jpg'
p34
aS'./find_phone/128.jpg'
p35
aS'./find_phone/129.jpg'
p36
aS'./find_phone/13.jpg'
p37
aS'./find_phone/130.jpg'
p38
aS'./find_phone/131.jpg'
p39
aS'./find_phone/132.jpg'
p40
aS'./find_phone/133.jpg'
p41
aS'./find_phone/134.jpg'
p42
aS'./find_phone/14.jpg'
p43
aS'./find_phone/15.jpg'
p44
aS'./find_phone/16.jpg'
p45
aS'./find_phone/17.jpg'
p46
aS'./find_phone/18.jpg'
p47
aS'./find_phone/20.jpg'
p48
aS'./find_phone/22.jpg'
p49
aS'./find_phone/23.jpg'
p50
aS'./find_phone/24.jpg'
p51
aS'./find_phone/25.jpg'
p52
aS'./find_phone/26.jpg'
p53
aS'./find_phone/27.jpg'
p54
aS'./find_phone/29.jpg'
p55
aS'./find_phone/3.jpg'
p56
aS'./find_phone/30.jpg'
p57
aS'./find_phone/31.jpg'
p58
aS'./find_phone/32.jpg'
p59
aS'./find_phone/33.jpg'
p60
aS'./find_phone/34.jpg'
p61
aS'./find_phone/35.jpg'
p62
aS'./find_phone/36.jpg'
p63
aS'./find_phone/37.jpg'
p64
aS'./find_phone/38.jpg'
p65
aS'./find_phone/39.jpg'
p66
aS'./find_phone/4.jpg'
p67
aS'./find_phone/40.jpg'
p68
aS'./find_phone/41.jpg'
p69
aS'./find_phone/42.jpg'
p70
aS'./find_phone/43.jpg'
p71
aS'./find_phone/44.jpg'
p72
aS'./find_phone/45.jpg'
p73
aS'./find_phone/46.jpg'
p74
aS'./find_phone/47.jpg'
p75
aS'./find_phone/48.jpg'
p76
aS'./find_phone/49.jpg'
p77
aS'./find_phone/5.jpg'
p78
aS'./find_phone/50.jpg'
p79
aS'./find_phone/51.jpg'
p80
aS'./find_phone/52.jpg'
p81
aS'./find_phone/53.jpg'
p82
aS'./find_phone/54.jpg'
p83
aS'./find_phone/55.jpg'
p84
aS'./find_phone/57.jpg'
p85
aS'./find_phone/58.jpg'
p86
aS'./find_phone/59.jpg'
p87
aS'./find_phone/6.jpg'
p88
aS'./find_phone/60.jpg'
p89
aS'./find_phone/61.jpg'
p90
aS'./find_phone/62.jpg'
p91
aS'./find_phone/63.jpg'
p92
aS'./find_phone/64.jpg'
p93
aS'./find_phone/66.jpg'
p94
aS'./find_phone/67.jpg'
p95
aS'./find_phone/68.jpg'
p96
aS'./find_phone/69.jpg'
p97
aS'./find_phone/7.jpg'
p98
aS'./find_phone/70.jpg'
p99
aS'./find_phone/71.jpg'
p100
aS'./find_phone/72.jpg'
p101
aS'./find_phone/73.jpg'
p102
aS'./find_phone/74.jpg'
p103
aS'./find_phone/75.jpg'
p104
a.