(lp1
S'./data/63.jpg'
p2
aS'./data/77.jpg'
p3
aS'./data/88.jpg'
p4
aS'./data/89.jpg'
p5
aS'./data/76.jpg'
p6
aS'./data/62.jpg'
p7
aS'./data/74.jpg'
p8
aS'./data/60.jpg'
p9
aS'./data/48.jpg'
p10
aS'./data/49.jpg'
p11
aS'./data/61.jpg'
p12
aS'./data/75.jpg'
p13
aS'./data/59.jpg'
p14
aS'./data/71.jpg'
p15
aS'./data/64.jpg'
p16
aS'./data/70.jpg'
p17
aS'./data/58.jpg'
p18
aS'./data/8.jpg'
p19
aS'./data/66.jpg'
p20
aS'./data/72.jpg'
p21
aS'./data/99.jpg'
p22
aS'./data/98.jpg'
p23
aS'./data/73.jpg'
p24
aS'./data/67.jpg'
p25
aS'./data/9.jpg'
p26
aS'./data/14.jpg'
p27
aS'./data/129.jpg'
p28
aS'./data/101.jpg'
p29
aS'./data/115.jpg'
p30
aS'./data/114.jpg'
p31
aS'./data/100.jpg'
p32
aS'./data/128.jpg'
p33
aS'./data/29.jpg'
p34
aS'./data/15.jpg'
p35
aS'./data/17.jpg'
p36
aS'./data/116.jpg'
p37
aS'./data/102.jpg'
p38
aS'./data/103.jpg'
p39
aS'./data/117.jpg'
p40
aS'./data/16.jpg'
p41
aS'./data/12.jpg'
p42
aS'./data/113.jpg'
p43
aS'./data/107.jpg'
p44
aS'./data/106.jpg'
p45
aS'./data/112.jpg'
p46
aS'./data/13.jpg'
p47
aS'./data/39.jpg'
p48
aS'./data/11.jpg'
p49
aS'./data/104.jpg'
p50
aS'./data/110.jpg'
p51
aS'./data/111.jpg'
p52
aS'./data/105.jpg'
p53
aS'./data/10.jpg'
p54
aS'./data/38.jpg'
p55
aS'./data/35.jpg'
p56
aS'./data/108.jpg'
p57
aS'./data/120.jpg'
p58
aS'./data/134.jpg'
p59
aS'./data/121.jpg'
p60
aS'./data/109.jpg'
p61
aS'./data/34.jpg'
p62
aS'./data/20.jpg'
p63
aS'./data/36.jpg'
p64
aS'./data/22.jpg'
p65
aS'./data/123.jpg'
p66
aS'./data/122.jpg'
p67
aS'./data/23.jpg'
p68
aS'./data/37.jpg'
p69
aS'./data/33.jpg'
p70
aS'./data/27.jpg'
p71
aS'./data/132.jpg'
p72
aS'./data/126.jpg'
p73
aS'./data/127.jpg'
p74
aS'./data/133.jpg'
p75
aS'./data/26.jpg'
p76
aS'./data/32.jpg'
p77
aS'./data/18.jpg'
p78
aS'./data/24.jpg'
p79
aS'./data/30.jpg'
p80
aS'./data/125.jpg'
p81
aS'./data/131.jpg'
p82
aS'./data/119.jpg'
p83
aS'./data/118.jpg'
p84
aS'./data/130.jpg'
p85
aS'./data/124.jpg'
p86
aS'./data/31.jpg'
p87
aS'./data/25.jpg'
p88
aS'./data/42.jpg'
p89
aS'./data/4.jpg'
p90
aS'./data/81.jpg'
p91
aS'./data/95.jpg'
p92
aS'./data/94.jpg'
p93
aS'./data/80.jpg'
p94
aS'./data/5.jpg'
p95
aS'./data/57.jpg'
p96
aS'./data/43.jpg'
p97
aS'./data/55.jpg'
p98
aS'./data/7.jpg'
p99
aS'./data/41.jpg'
p100
aS'./data/69.jpg'
p101
aS'./data/96.jpg'
p102
aS'./data/82.jpg'
p103
aS'./data/83.jpg'
p104
a.